target datalayout = "e-m:e-p270:32:32-p271:32:32-p272:64:64-i64:64-i128:128-f80:128-n8:16:32:64-S128"
target triple = "x86_64-pc-linux-gnu"

%"class.std::__shared_count" = type { ptr }
%"class.duckdb::unique_ptr.2" = type { %"class.std::unique_ptr.3" }
%"class.std::unique_ptr.3" = type { %"struct.std::__uniq_ptr_data.4" }
%"struct.std::__uniq_ptr_data.4" = type { %"class.std::__uniq_ptr_impl.5" }
%"class.std::__uniq_ptr_impl.5" = type { %"class.std::tuple.6" }
%"class.std::tuple.6" = type { %"struct.std::_Tuple_impl.7" }
%"struct.std::_Tuple_impl.7" = type { %"struct.std::_Head_base.10" }
%"struct.std::_Head_base.10" = type { ptr }
%"class.duckdb::DictionaryDecoder" = type { ptr, ptr, %"class.duckdb::unique_ptr.2", %"struct.duckdb::SelectionVector", %"struct.duckdb::SelectionVector", i64, %"class.duckdb::unique_ptr.15", %"class.duckdb::unique_ptr.24", i64, i8, %"class.std::__cxx11::basic_string" }
%"struct.duckdb::SelectionVector" = type { ptr, %"class.duckdb::shared_ptr.11" }
%"class.duckdb::shared_ptr.11" = type { %"class.std::shared_ptr.12" }
%"class.std::shared_ptr.12" = type { %"class.std::__shared_ptr.13" }
%"class.std::__shared_ptr.13" = type { ptr, %"class.std::__shared_count" }
%"class.duckdb::unique_ptr.15" = type { %"class.std::unique_ptr.16" }
%"class.std::unique_ptr.16" = type { %"struct.std::__uniq_ptr_data.17" }
%"struct.std::__uniq_ptr_data.17" = type { %"class.std::__uniq_ptr_impl.18" }
%"class.std::__uniq_ptr_impl.18" = type { %"class.std::tuple.19" }
%"class.std::tuple.19" = type { %"struct.std::_Tuple_impl.20" }
%"struct.std::_Tuple_impl.20" = type { %"struct.std::_Head_base.23" }
%"struct.std::_Head_base.23" = type { ptr }
%"class.duckdb::unique_ptr.24" = type { %"class.std::unique_ptr.25" }
%"class.std::unique_ptr.25" = type { %"struct.std::__uniq_ptr_data.26" }
%"struct.std::__uniq_ptr_data.26" = type { %"class.std::__uniq_ptr_impl.27" }
%"class.std::__uniq_ptr_impl.27" = type { %"class.std::tuple.28" }
%"class.std::tuple.28" = type { %"struct.std::_Tuple_impl.29" }
%"struct.std::_Tuple_impl.29" = type { %"struct.std::_Head_base.32" }
%"struct.std::_Head_base.32" = type { ptr }
%"class.std::__cxx11::basic_string" = type { %"struct.std::__cxx11::basic_string<char>::_Alloc_hider", i64, %union.anon }
%"struct.std::__cxx11::basic_string<char>::_Alloc_hider" = type { ptr }
%union.anon = type { i64, [8 x i8] }

@_ZTISt13runtime_error = external constant ptr
@.str.10 = private unnamed_addr constant [65 x i8] c"Parquet file is likely corrupted, dictionary offset out of range\00", align 1

; Function Attrs: mustprogress nounwind uwtable
define linkonce_odr noundef i32 @_ZN6duckdb17UnsafeNumericCastIjmvEET_T0_(i64 noundef %0) #4 comdat {
  %2 = alloca i64, align 8
  store i64 %0, ptr %2, align 8, !tbaa !30
  %3 = load i64, ptr %2, align 8, !tbaa !30
  %4 = trunc i64 %3 to i32
  ret i32 %4
}

; Function Attrs: inlinehint mustprogress uwtable
define linkonce_odr void @_ZN6duckdb15SelectionVector9set_indexEmm(ptr noundef nonnull align 8 dereferenceable(24) %0, i64 noundef %1, i64 noundef %2) #8 comdat align 2 {
  %4 = alloca ptr, align 8
  %5 = alloca i64, align 8
  %6 = alloca i64, align 8
  store ptr %0, ptr %4, align 8, !tbaa !308
  store i64 %1, ptr %5, align 8, !tbaa !30
  store i64 %2, ptr %6, align 8, !tbaa !30
  %7 = load ptr, ptr %4, align 8
  %8 = load i64, ptr %6, align 8, !tbaa !30
  %9 = call noundef i32 @_ZN6duckdb17UnsafeNumericCastIjmvEET_T0_(i64 noundef %8)
  %10 = getelementptr inbounds nuw %"struct.duckdb::SelectionVector", ptr %7, i32 0, i32 0
  %11 = load ptr, ptr %10, align 8, !tbaa !336
  %12 = load i64, ptr %5, align 8, !tbaa !30
  %13 = getelementptr inbounds nuw i32, ptr %11, i64 %12
  store i32 %9, ptr %13, align 4, !tbaa !223
  ret void
}

; Function Attrs: inlinehint mustprogress nounwind uwtable
define linkonce_odr noundef i64 @_ZNK6duckdb15SelectionVector9get_indexEm(ptr noundef nonnull align 8 dereferenceable(24) %0, i64 noundef %1) #5 comdat align 2 {
  %3 = alloca ptr, align 8
  %4 = alloca i64, align 8
  store ptr %0, ptr %3, align 8, !tbaa !308
  store i64 %1, ptr %4, align 8, !tbaa !30
  %5 = load ptr, ptr %3, align 8
  %6 = getelementptr inbounds nuw %"struct.duckdb::SelectionVector", ptr %5, i32 0, i32 0
  %7 = load ptr, ptr %6, align 8, !tbaa !336
  %8 = icmp ne ptr %7, null
  br i1 %8, label %9, label %16

9:                                                ; preds = %2
  %10 = getelementptr inbounds nuw %"struct.duckdb::SelectionVector", ptr %5, i32 0, i32 0
  %11 = load ptr, ptr %10, align 8, !tbaa !336
  %12 = load i64, ptr %4, align 8, !tbaa !30
  %13 = getelementptr inbounds nuw i32, ptr %11, i64 %12
  %14 = load i32, ptr %13, align 4, !tbaa !223
  %15 = zext i32 %14 to i64
  br label %18

16:                                               ; preds = %2
  %17 = load i64, ptr %4, align 8, !tbaa !30
  br label %18

18:                                               ; preds = %16, %9
  %19 = phi i64 [ %15, %9 ], [ %17, %16 ]
  ret i64 %19
}

; Function Attrs: mustprogress uwtable
define void @_ZN6duckdb17DictionaryDecoder19ConvertDictToSelVecEPjRKNS_15SelectionVectorEm(ptr noundef nonnull align 8 dereferenceable(144) %0, ptr noundef %1, ptr noundef nonnull align 8 dereferenceable(24) %2, i64 noundef %3) #6 align 2 personality ptr @__gxx_personality_v0 {
  %5 = alloca ptr, align 8
  %6 = alloca ptr, align 8
  %7 = alloca ptr, align 8
  %8 = alloca i64, align 8
  %9 = alloca i64, align 8
  %10 = alloca i64, align 8
  %11 = alloca i32, align 4
  %12 = alloca ptr, align 8
  %13 = alloca i32, align 4
  store ptr %0, ptr %5, align 8, !tbaa !303
  store ptr %1, ptr %6, align 8, !tbaa !258
  store ptr %2, ptr %7, align 8, !tbaa !308
  store i64 %3, ptr %8, align 8, !tbaa !30
  %14 = load ptr, ptr %5, align 8
  call void @llvm.lifetime.start.p0(i64 8, ptr %9) #3
  store i64 0, ptr %9, align 8, !tbaa !30
  br label %15

15:                                               ; preds = %45, %4
  %16 = load i64, ptr %9, align 8, !tbaa !30
  %17 = load i64, ptr %8, align 8, !tbaa !30
  %18 = icmp ult i64 %16, %17
  br i1 %18, label %20, label %19

19:                                               ; preds = %15
  call void @llvm.lifetime.end.p0(i64 8, ptr %9) #3
  br label %48

20:                                               ; preds = %15
  call void @llvm.lifetime.start.p0(i64 8, ptr %10) #3
  %21 = load ptr, ptr %7, align 8, !tbaa !308
  %22 = load i64, ptr %9, align 8, !tbaa !30
  %23 = call noundef i64 @_ZNK6duckdb15SelectionVector9get_indexEm(ptr noundef nonnull align 8 dereferenceable(24) %21, i64 noundef %22)
  store i64 %23, ptr %10, align 8, !tbaa !30
  call void @llvm.lifetime.start.p0(i64 4, ptr %11) #3
  %24 = load ptr, ptr %6, align 8, !tbaa !258
  %25 = load i64, ptr %9, align 8, !tbaa !30
  %26 = getelementptr inbounds nuw i32, ptr %24, i64 %25
  %27 = load i32, ptr %26, align 4, !tbaa !223
  store i32 %27, ptr %11, align 4, !tbaa !223
  %28 = load i32, ptr %11, align 4, !tbaa !223
  %29 = zext i32 %28 to i64
  %30 = getelementptr inbounds nuw %"class.duckdb::DictionaryDecoder", ptr %14, i32 0, i32 5
  %31 = load i64, ptr %30, align 8, !tbaa !305
  %32 = icmp uge i64 %29, %31
  br i1 %32, label %33, label %40

33:                                               ; preds = %20
  %34 = call ptr @__cxa_allocate_exception(i64 16) #3
  invoke void @_ZNSt13runtime_errorC1EPKc(ptr noundef nonnull align 8 dereferenceable(16) %34, ptr noundef @.str.10)
          to label %35 unwind label %36

35:                                               ; preds = %33
  call void @__cxa_throw(ptr %34, ptr @_ZTISt13runtime_error, ptr @_ZNSt13runtime_errorD1Ev) #23
  unreachable

36:                                               ; preds = %33
  %37 = landingpad { ptr, i32 }
          cleanup
  %38 = extractvalue { ptr, i32 } %37, 0
  store ptr %38, ptr %12, align 8
  %39 = extractvalue { ptr, i32 } %37, 1
  store i32 %39, ptr %13, align 4
  call void @__cxa_free_exception(ptr %34) #3
  call void @llvm.lifetime.end.p0(i64 4, ptr %11) #3
  call void @llvm.lifetime.end.p0(i64 8, ptr %10) #3
  call void @llvm.lifetime.end.p0(i64 8, ptr %9) #3
  br label %49

40:                                               ; preds = %20
  %41 = getelementptr inbounds nuw %"class.duckdb::DictionaryDecoder", ptr %14, i32 0, i32 4
  %42 = load i64, ptr %10, align 8, !tbaa !30
  %43 = load i32, ptr %11, align 4, !tbaa !223
  %44 = zext i32 %43 to i64
  call void @_ZN6duckdb15SelectionVector9set_indexEmm(ptr noundef nonnull align 8 dereferenceable(24) %41, i64 noundef %42, i64 noundef %44)
  call void @llvm.lifetime.end.p0(i64 4, ptr %11) #3
  call void @llvm.lifetime.end.p0(i64 8, ptr %10) #3
  br label %45

45:                                               ; preds = %40
  %46 = load i64, ptr %9, align 8, !tbaa !30
  %47 = add i64 %46, 1
  store i64 %47, ptr %9, align 8, !tbaa !30
  br label %15, !llvm.loop !339

48:                                               ; preds = %19
  ret void

49:                                               ; preds = %36
  %50 = load ptr, ptr %12, align 8
  %51 = load i32, ptr %13, align 4
  %52 = insertvalue { ptr, i32 } poison, ptr %50, 0
  %53 = insertvalue { ptr, i32 } %52, i32 %51, 1
  resume { ptr, i32 } %53
}