; Function Attrs: mustprogress uwtable
define void @_ZN6duckdb17DictionaryDecoder19ConvertDictToSelVecEPjRKNS_15SelectionVectorEm(ptr noundef nonnull readonly align 8 captures(none) dereferenceable(144) %0, ptr noundef readonly captures(none) %1, ptr noundef nonnull readonly align 8 captures(none) dereferenceable(24) %2, i64 noundef %3) local_unnamed_addr #4 align 2 personality ptr @__gxx_personality_v0 {
  %.not14 = icmp eq i64 %3, 0
  br i1 %.not14, label %._crit_edge, label %.lr.ph

.lr.ph:                                           ; preds = %4
  %5 = load ptr, ptr %2, align 8, !tbaa !341
  %.not.i = icmp eq ptr %5, null
  %6 = getelementptr inbounds nuw i8, ptr %0, i64 72
  %7 = load i64, ptr %6, align 8, !tbaa !307
  %8 = getelementptr inbounds nuw i8, ptr %0, i64 48
  %9 = load ptr, ptr %8, align 8
  br i1 %.not.i, label %_ZNK6duckdb15SelectionVector9get_indexEm.exit.us, label %_ZNK6duckdb15SelectionVector9get_indexEm.exit

_ZNK6duckdb15SelectionVector9get_indexEm.exit.us: ; preds = %.lr.ph, %13
  %.013.us = phi i64 [ %15, %13 ], [ 0, %.lr.ph ]
  %10 = getelementptr inbounds nuw i32, ptr %1, i64 %.013.us
  %11 = load i32, ptr %10, align 4, !tbaa !278
  %12 = zext i32 %11 to i64
  %.not.us = icmp ugt i64 %7, %12
  br i1 %.not.us, label %13, label %.split.us

13:                                               ; preds = %_ZNK6duckdb15SelectionVector9get_indexEm.exit.us
  %14 = getelementptr inbounds nuw i32, ptr %9, i64 %.013.us
  store i32 %11, ptr %14, align 4, !tbaa !278
  %15 = add nuw i64 %.013.us, 1
  %exitcond17.not = icmp eq i64 %15, %3
  br i1 %exitcond17.not, label %._crit_edge, label %_ZNK6duckdb15SelectionVector9get_indexEm.exit.us, !llvm.loop !352

._crit_edge:                                      ; preds = %23, %13, %4
  ret void

_ZNK6duckdb15SelectionVector9get_indexEm.exit:    ; preds = %.lr.ph, %23
  %.013 = phi i64 [ %28, %23 ], [ 0, %.lr.ph ]
  %16 = getelementptr inbounds nuw i32, ptr %1, i64 %.013
  %17 = load i32, ptr %16, align 4, !tbaa !278
  %18 = zext i32 %17 to i64
  %.not = icmp ugt i64 %7, %18
  br i1 %.not, label %23, label %.split.us

.split.us:                                        ; preds = %_ZNK6duckdb15SelectionVector9get_indexEm.exit, %_ZNK6duckdb15SelectionVector9get_indexEm.exit.us
  %19 = tail call ptr @__cxa_allocate_exception(i64 16) #24
  invoke void @_ZNSt13runtime_errorC1EPKc(ptr noundef nonnull align 8 dereferenceable(16) %19, ptr noundef nonnull @.str.10)
          to label %20 unwind label %21

20:                                               ; preds = %.split.us
  tail call void @__cxa_throw(ptr nonnull %19, ptr nonnull @_ZTISt13runtime_error, ptr nonnull @_ZNSt13runtime_errorD1Ev) #25
  unreachable

21:                                               ; preds = %.split.us
  %22 = landingpad { ptr, i32 }
          cleanup
  tail call void @__cxa_free_exception(ptr nonnull %19) #24
  resume { ptr, i32 } %22

23:                                               ; preds = %_ZNK6duckdb15SelectionVector9get_indexEm.exit
  %24 = getelementptr inbounds nuw i32, ptr %5, i64 %.013
  %25 = load i32, ptr %24, align 4, !tbaa !278
  %26 = zext i32 %25 to i64
  %27 = getelementptr inbounds nuw i32, ptr %9, i64 %26
  store i32 %17, ptr %27, align 4, !tbaa !278
  %28 = add nuw i64 %.013, 1
  %exitcond.not = icmp eq i64 %28, %3
  br i1 %exitcond.not, label %._crit_edge, label %_ZNK6duckdb15SelectionVector9get_indexEm.exit, !llvm.loop !352
}